target datalayout = "e-m:e-p270:32:32-p271:32:32-p272:64:64-i64:64-i128:128-f80:128-n8:16:32:64-S128"
target triple = "x86_64-pc-linux-gnu"

%struct.DefElem = type { i32, ptr, ptr, ptr, i32, i32 }
%struct.Node = type { i32 }
%struct.Integer = type { i32, i32 }

@.str.1 = private unnamed_addr constant [9 x i8] c"define.c\00", align 1
@.str.3 = private unnamed_addr constant [5 x i8] c"true\00", align 1
@.str.4 = private unnamed_addr constant [6 x i8] c"false\00", align 1
@.str.8 = private unnamed_addr constant [3 x i8] c"on\00", align 1
@.str.9 = private unnamed_addr constant [4 x i8] c"off\00", align 1
@.str.10 = private unnamed_addr constant [28 x i8] c"%s requires a Boolean value\00", align 1
@__func__.defGetBoolean = private unnamed_addr constant [14 x i8] c"defGetBoolean\00", align 1

; Function Attrs: nounwind uwtable
define dso_local zeroext i1 @defGetBoolean(ptr noundef %0) #0 {
  %2 = alloca i1, align 1
  %3 = alloca ptr, align 8
  %4 = alloca ptr, align 8
  %5 = alloca i32, align 4
  store ptr %0, ptr %3, align 8
  %6 = load ptr, ptr %3, align 8
  %7 = getelementptr inbounds nuw %struct.DefElem, ptr %6, i32 0, i32 3
  %8 = load ptr, ptr %7, align 8
  %9 = icmp eq ptr %8, null
  br i1 %9, label %10, label %11

10:                                               ; preds = %1
  store i1 true, ptr %2, align 1
  br label %67

11:                                               ; preds = %1
  %12 = load ptr, ptr %3, align 8
  %13 = getelementptr inbounds nuw %struct.DefElem, ptr %12, i32 0, i32 3
  %14 = load ptr, ptr %13, align 8
  %15 = getelementptr inbounds nuw %struct.Node, ptr %14, i32 0, i32 0
  %16 = load i32, ptr %15, align 4
  switch i32 %16, label %27 [
    i32 464, label %17
  ]

17:                                               ; preds = %11
  %18 = load ptr, ptr %3, align 8
  %19 = getelementptr inbounds nuw %struct.DefElem, ptr %18, i32 0, i32 3
  %20 = load ptr, ptr %19, align 8
  %21 = getelementptr inbounds nuw %struct.Integer, ptr %20, i32 0, i32 1
  %22 = load i32, ptr %21, align 4
  switch i32 %22, label %25 [
    i32 0, label %23
    i32 1, label %24
  ]

23:                                               ; preds = %17
  store i1 false, ptr %2, align 1
  br label %67

24:                                               ; preds = %17
  store i1 true, ptr %2, align 1
  br label %67

25:                                               ; preds = %17
  br label %26

26:                                               ; preds = %25
  br label %53

27:                                               ; preds = %11
  call void @llvm.lifetime.start.p0(i64 8, ptr %4) #11
  %28 = load ptr, ptr %3, align 8
  %29 = call ptr @defGetString(ptr noundef %28)
  store ptr %29, ptr %4, align 8
  %30 = load ptr, ptr %4, align 8
  %31 = call i32 @pg_strcasecmp(ptr noundef %30, ptr noundef @.str.3)
  %32 = icmp eq i32 %31, 0
  br i1 %32, label %33, label %34

33:                                               ; preds = %27
  store i1 true, ptr %2, align 1
  store i32 1, ptr %5, align 4
  br label %50

34:                                               ; preds = %27
  %35 = load ptr, ptr %4, align 8
  %36 = call i32 @pg_strcasecmp(ptr noundef %35, ptr noundef @.str.4)
  %37 = icmp eq i32 %36, 0
  br i1 %37, label %38, label %39

38:                                               ; preds = %34
  store i1 false, ptr %2, align 1
  store i32 1, ptr %5, align 4
  br label %50

39:                                               ; preds = %34
  %40 = load ptr, ptr %4, align 8
  %41 = call i32 @pg_strcasecmp(ptr noundef %40, ptr noundef @.str.8)
  %42 = icmp eq i32 %41, 0
  br i1 %42, label %43, label %44

43:                                               ; preds = %39
  store i1 true, ptr %2, align 1
  store i32 1, ptr %5, align 4
  br label %50

44:                                               ; preds = %39
  %45 = load ptr, ptr %4, align 8
  %46 = call i32 @pg_strcasecmp(ptr noundef %45, ptr noundef @.str.9)
  %47 = icmp eq i32 %46, 0
  br i1 %47, label %48, label %49

48:                                               ; preds = %44
  store i1 false, ptr %2, align 1
  store i32 1, ptr %5, align 4
  br label %50

49:                                               ; preds = %44
  store i32 0, ptr %5, align 4
  br label %50

50:                                               ; preds = %49, %48, %43, %38, %33
  call void @llvm.lifetime.end.p0(i64 8, ptr %4) #11
  %51 = load i32, ptr %5, align 4
  switch i32 %51, label %69 [
    i32 0, label %52
    i32 1, label %67
  ]

52:                                               ; preds = %50
  br label %53

53:                                               ; preds = %52, %26
  br label %54

54:                                               ; preds = %53
  br i1 true, label %55, label %57

55:                                               ; preds = %54
  %56 = call zeroext i1 @errstart_cold(i32 noundef 21, ptr noundef null) #9
  br i1 %56, label %59, label %65

57:                                               ; preds = %54
  %58 = call zeroext i1 @errstart(i32 noundef 21, ptr noundef null)
  br i1 %58, label %59, label %65

59:                                               ; preds = %57, %55
  %60 = call i32 @errcode(i32 noundef 16801924)
  %61 = load ptr, ptr %3, align 8
  %62 = getelementptr inbounds nuw %struct.DefElem, ptr %61, i32 0, i32 2
  %63 = load ptr, ptr %62, align 8
  %64 = call i32 (ptr, ...) @errmsg(ptr noundef @.str.10, ptr noundef %63)
  call void @errfinish(ptr noundef @.str.1, i32 noundef 141, ptr noundef @__func__.defGetBoolean)
  br label %65

65:                                               ; preds = %59, %57, %55
  unreachable

66:                                               ; No predecessors!
  store i1 false, ptr %2, align 1
  br label %67

67:                                               ; preds = %66, %50, %24, %23, %10
  %68 = load i1, ptr %2, align 1
  ret i1 %68

69:                                               ; preds = %50
  unreachable
}