; Function Attrs: nounwind uwtable
define dso_local noundef zeroext i1 @defGetBoolean(ptr noundef readonly captures(none) %0) local_unnamed_addr #0 {
  %2 = getelementptr inbounds nuw i8, ptr %0, i64 24
  %3 = load ptr, ptr %2, align 8
  %4 = icmp eq ptr %3, null
  br i1 %4, label %.thread, label %5

5:                                                ; preds = %1
  %6 = load i32, ptr %3, align 4
  %cond = icmp eq i32 %6, 464
  br i1 %cond, label %7, label %11

7:                                                ; preds = %5
  %8 = getelementptr inbounds nuw i8, ptr %3, i64 4
  %9 = load i32, ptr %8, align 4
  switch i32 %9, label %23 [
    i32 0, label %.thread
    i32 1, label %10
  ]

10:                                               ; preds = %7
  br label %.thread

11:                                               ; preds = %5
  %12 = tail call ptr @defGetString(ptr noundef nonnull %0)
  %13 = tail call i32 @pg_strcasecmp(ptr noundef %12, ptr noundef nonnull @.str.3) #7
  %14 = icmp eq i32 %13, 0
  br i1 %14, label %.thread, label %15

15:                                               ; preds = %11
  %16 = tail call i32 @pg_strcasecmp(ptr noundef %12, ptr noundef nonnull @.str.4) #7
  %17 = icmp eq i32 %16, 0
  br i1 %17, label %.thread, label %18

18:                                               ; preds = %15
  %19 = tail call i32 @pg_strcasecmp(ptr noundef %12, ptr noundef nonnull @.str.8) #7
  %20 = icmp eq i32 %19, 0
  br i1 %20, label %.thread, label %21

21:                                               ; preds = %18
  %22 = tail call i32 @pg_strcasecmp(ptr noundef %12, ptr noundef nonnull @.str.9) #7
  %.not = icmp eq i32 %22, 0
  br i1 %.not, label %.thread, label %23

23:                                               ; preds = %21, %7
  %24 = tail call zeroext i1 @errstart_cold(i32 noundef 21, ptr noundef null) #6
  tail call void @llvm.assume(i1 %24)
  %25 = tail call i32 @errcode(i32 noundef 16801924) #7
  %26 = getelementptr inbounds nuw i8, ptr %0, i64 16
  %27 = load ptr, ptr %26, align 8
  %28 = tail call i32 (ptr, ...) @errmsg(ptr noundef nonnull @.str.10, ptr noundef %27) #7
  tail call void @errfinish(ptr noundef nonnull @.str.1, i32 noundef 141, ptr noundef nonnull @__func__.defGetBoolean) #7
  unreachable

.thread:                                          ; preds = %18, %15, %11, %21, %7, %1, %10
  %.010 = phi i1 [ true, %10 ], [ false, %21 ], [ true, %1 ], [ false, %7 ], [ true, %18 ], [ false, %15 ], [ true, %11 ]
  ret i1 %.010
}